; Function Attrs: nofree noinline norecurse nosync nounwind memory(argmem: readwrite) uwtable
define internal fastcc void @avg_bilin_1d_h_c(ptr noundef captures(none) %0, i64 noundef %1, ptr noundef readonly captures(none) %2, i64 noundef %3, i32 noundef range(i32 4, 65) %4, i32 noundef %5, i32 noundef %6) unnamed_addr #8 {
  %8 = lshr i64 %1, 1
  %9 = lshr i64 %3, 1
  %wide.trip.count = zext nneg i32 %4 to i64
  br label %10

10:                                               ; preds = %31, %7
  %.036.i = phi i32 [ %5, %7 ], [ %34, %31 ]
  %.035.i = phi ptr [ %0, %7 ], [ %32, %31 ]
  %.034.i = phi ptr [ %2, %7 ], [ %33, %31 ]
  %11 = getelementptr inbounds nuw i8, ptr %.034.i, i64 2
  br label %12

12:                                               ; preds = %10, %12
  %indvars.iv = phi i64 [ 0, %10 ], [ %indvars.iv.next, %12 ]
  %13 = getelementptr inbounds nuw i16, ptr %.035.i, i64 %indvars.iv
  %14 = load i16, ptr %13, align 2, !tbaa !9
  %15 = zext i16 %14 to i32
  %16 = getelementptr inbounds nuw i16, ptr %.034.i, i64 %indvars.iv
  %17 = load i16, ptr %16, align 2, !tbaa !9
  %18 = zext i16 %17 to i32
  %19 = getelementptr inbounds nuw i16, ptr %11, i64 %indvars.iv
  %20 = load i16, ptr %19, align 2, !tbaa !9
  %21 = zext i16 %20 to i32
  %22 = sub nsw i32 %21, %18
  %23 = mul nsw i32 %22, %6
  %24 = add nsw i32 %23, 8
  %25 = lshr i32 %24, 4
  %26 = add nuw nsw i32 %15, 1
  %27 = add nuw nsw i32 %26, %18
  %28 = add nuw nsw i32 %27, %25
  %29 = lshr i32 %28, 1
  %30 = trunc i32 %29 to i16
  store i16 %30, ptr %13, align 2, !tbaa !9
  %indvars.iv.next = add nuw nsw i64 %indvars.iv, 1
  %exitcond.not = icmp eq i64 %indvars.iv.next, %wide.trip.count
  br i1 %exitcond.not, label %31, label %12, !llvm.loop !141

31:                                               ; preds = %12
  %32 = getelementptr inbounds nuw i16, ptr %.035.i, i64 %8
  %33 = getelementptr inbounds nuw i16, ptr %.034.i, i64 %9
  %34 = add nsw i32 %.036.i, -1
  %.not.i = icmp eq i32 %34, 0
  br i1 %.not.i, label %do_bilin_1d_c.exit, label %10, !llvm.loop !142

do_bilin_1d_c.exit:                               ; preds = %31
  ret void
}